target datalayout = "e-m:e-p270:32:32-p271:32:32-p272:64:64-i64:64-i128:128-f80:128-n8:16:32:64-S128"
target triple = "x86_64-pc-linux-gnu"

%struct.KDF_HKDF = type { ptr, i32, %struct.PROV_DIGEST, ptr, i64, ptr, i64, ptr, i64, ptr, i64, ptr, i64, ptr, i64 }
%struct.PROV_DIGEST = type { ptr, ptr, ptr }

@.str = private unnamed_addr constant [49 x i8] c"../openssl/providers/implementations/kdfs/hkdf.c\00", align 1

; Function Attrs: nounwind uwtable
define internal void @kdf_hkdf_reset(ptr noundef %0) #0 {
  %2 = alloca ptr, align 8
  %3 = alloca ptr, align 8
  %4 = alloca ptr, align 8
  store ptr %0, ptr %2, align 8, !tbaa !3
  call void @llvm.lifetime.start.p0(i64 8, ptr %3) #6
  %5 = load ptr, ptr %2, align 8, !tbaa !3
  store ptr %5, ptr %3, align 8, !tbaa !3
  call void @llvm.lifetime.start.p0(i64 8, ptr %4) #6
  %6 = load ptr, ptr %3, align 8, !tbaa !3
  %7 = getelementptr inbounds nuw %struct.KDF_HKDF, ptr %6, i32 0, i32 0
  %8 = load ptr, ptr %7, align 8, !tbaa !7
  store ptr %8, ptr %4, align 8, !tbaa !3
  %9 = load ptr, ptr %3, align 8, !tbaa !3
  %10 = getelementptr inbounds nuw %struct.KDF_HKDF, ptr %9, i32 0, i32 2
  call void @ossl_prov_digest_reset(ptr noundef %10)
  %11 = load ptr, ptr %3, align 8, !tbaa !3
  %12 = getelementptr inbounds nuw %struct.KDF_HKDF, ptr %11, i32 0, i32 3
  %13 = load ptr, ptr %12, align 8, !tbaa !15
  call void @CRYPTO_free(ptr noundef %13, ptr noundef @.str, i32 noundef 134)
  %14 = load ptr, ptr %3, align 8, !tbaa !3
  %15 = getelementptr inbounds nuw %struct.KDF_HKDF, ptr %14, i32 0, i32 7
  %16 = load ptr, ptr %15, align 8, !tbaa !19
  call void @CRYPTO_free(ptr noundef %16, ptr noundef @.str, i32 noundef 136)
  %17 = load ptr, ptr %3, align 8, !tbaa !3
  %18 = getelementptr inbounds nuw %struct.KDF_HKDF, ptr %17, i32 0, i32 9
  %19 = load ptr, ptr %18, align 8, !tbaa !21
  call void @CRYPTO_free(ptr noundef %19, ptr noundef @.str, i32 noundef 137)
  %20 = load ptr, ptr %3, align 8, !tbaa !3
  %21 = getelementptr inbounds nuw %struct.KDF_HKDF, ptr %20, i32 0, i32 11
  %22 = load ptr, ptr %21, align 8, !tbaa !23
  %23 = load ptr, ptr %3, align 8, !tbaa !3
  %24 = getelementptr inbounds nuw %struct.KDF_HKDF, ptr %23, i32 0, i32 12
  %25 = load i64, ptr %24, align 8, !tbaa !24
  call void @CRYPTO_clear_free(ptr noundef %22, i64 noundef %25, ptr noundef @.str, i32 noundef 138)
  %26 = load ptr, ptr %3, align 8, !tbaa !3
  %27 = getelementptr inbounds nuw %struct.KDF_HKDF, ptr %26, i32 0, i32 5
  %28 = load ptr, ptr %27, align 8, !tbaa !17
  %29 = load ptr, ptr %3, align 8, !tbaa !3
  %30 = getelementptr inbounds nuw %struct.KDF_HKDF, ptr %29, i32 0, i32 6
  %31 = load i64, ptr %30, align 8, !tbaa !18
  call void @CRYPTO_clear_free(ptr noundef %28, i64 noundef %31, ptr noundef @.str, i32 noundef 139)
  %32 = load ptr, ptr %3, align 8, !tbaa !3
  %33 = getelementptr inbounds nuw %struct.KDF_HKDF, ptr %32, i32 0, i32 13
  %34 = load ptr, ptr %33, align 8, !tbaa !25
  %35 = load ptr, ptr %3, align 8, !tbaa !3
  %36 = getelementptr inbounds nuw %struct.KDF_HKDF, ptr %35, i32 0, i32 14
  %37 = load i64, ptr %36, align 8, !tbaa !26
  call void @CRYPTO_clear_free(ptr noundef %34, i64 noundef %37, ptr noundef @.str, i32 noundef 140)
  %38 = load ptr, ptr %3, align 8, !tbaa !3
  call void @llvm.memset.p0.i64(ptr align 8 %38, i8 0, i64 136, i1 false)
  %39 = load ptr, ptr %4, align 8, !tbaa !3
  %40 = load ptr, ptr %3, align 8, !tbaa !3
  %41 = getelementptr inbounds nuw %struct.KDF_HKDF, ptr %40, i32 0, i32 0
  store ptr %39, ptr %41, align 8, !tbaa !7
  call void @llvm.lifetime.end.p0(i64 8, ptr %4) #6
  call void @llvm.lifetime.end.p0(i64 8, ptr %3) #6
  ret void
}

; Function Attrs: nounwind uwtable
define internal void @kdf_hkdf_free(ptr noundef %0) #0 {
  %2 = alloca ptr, align 8
  %3 = alloca ptr, align 8
  store ptr %0, ptr %2, align 8, !tbaa !3
  call void @llvm.lifetime.start.p0(i64 8, ptr %3) #6
  %4 = load ptr, ptr %2, align 8, !tbaa !3
  store ptr %4, ptr %3, align 8, !tbaa !3
  %5 = load ptr, ptr %3, align 8, !tbaa !3
  %6 = icmp ne ptr %5, null
  br i1 %6, label %7, label %10

7:                                                ; preds = %1
  %8 = load ptr, ptr %3, align 8, !tbaa !3
  call void @kdf_hkdf_reset(ptr noundef %8)
  %9 = load ptr, ptr %3, align 8, !tbaa !3
  call void @CRYPTO_free(ptr noundef %9, ptr noundef @.str, i32 noundef 121)
  br label %10

10:                                               ; preds = %7, %1
  call void @llvm.lifetime.end.p0(i64 8, ptr %3) #6
  ret void
}